target datalayout = "e-m:e-p270:32:32-p271:32:32-p272:64:64-i64:64-i128:128-f80:128-n8:16:32:64-S128"
target triple = "x86_64-pc-linux-gnu"

%struct.AVCodecContext = type { ptr, i32, i32, ptr, i32, i32, ptr, ptr, ptr, i64, i32, i32, ptr, i32, %struct.AVRational, %struct.AVRational, %struct.AVRational, i32, i32, i32, i32, i32, %struct.AVRational, i32, i32, i32, i32, i32, i32, i32, i32, i32, i32, i32, ptr, ptr, i32, float, float, float, float, float, float, float, float, float, i32, i32, i32, i32, i32, i32, i32, i32, i32, i32, i32, i32, ptr, ptr, ptr, i32, i32, i32, i32, i32, i32, i32, i32, i32, i32, %struct.AVChannelLayout, i32, i32, i32, i32, i32, i32, i32, i32, ptr, i32, i32, i32, float, float, i32, i32, i32, i32, i32, ptr, i64, i64, float, float, i32, i32, ptr, ptr, i32, i32, i32, i32, i32, ptr, ptr, ptr, ptr, i32, i32, [8 x i64], i32, i32, i32, i32, i32, i32, i32, ptr, ptr, i32, i32, i32, i32, i32, i32, i32, i32, i32, i32, ptr, ptr, i32, i32, ptr, ptr, ptr, ptr, i32, i32, i64, i32, i32, i64, ptr, i64, ptr, i32, ptr, i32 }
%struct.AVRational = type { i32, i32 }
%struct.AVChannelLayout = type { i32, i32, %union.anon.0, ptr }
%union.anon.0 = type { i64 }
%struct.IdcinContext = type { ptr, ptr, i32, [256 x [512 x %struct.hnode]], [256 x i32], [256 x i32] }
%struct.hnode = type { i32, i8, [2 x i32] }

@.str.4 = private unnamed_addr constant [47 x i8] c"  id CIN video: expected extradata size of %d\0A\00", align 1

; Function Attrs: cold nounwind optsize uwtable
define internal i32 @idcin_decode_init(ptr noundef %0) #0 {
  %2 = alloca i32, align 4
  %3 = alloca ptr, align 8
  %4 = alloca ptr, align 8
  %5 = alloca i32, align 4
  %6 = alloca i32, align 4
  %7 = alloca i32, align 4
  %8 = alloca ptr, align 8
  %9 = alloca i32, align 4
  store ptr %0, ptr %3, align 8, !tbaa !4
  call void @llvm.lifetime.start.p0(i64 8, ptr %4) #5
  %10 = load ptr, ptr %3, align 8, !tbaa !4
  %11 = getelementptr inbounds nuw %struct.AVCodecContext, ptr %10, i32 0, i32 6
  %12 = load ptr, ptr %11, align 8, !tbaa !9
  store ptr %12, ptr %4, align 8, !tbaa !29
  call void @llvm.lifetime.start.p0(i64 4, ptr %5) #5
  call void @llvm.lifetime.start.p0(i64 4, ptr %6) #5
  call void @llvm.lifetime.start.p0(i64 4, ptr %7) #5
  store i32 0, ptr %7, align 4, !tbaa !31
  call void @llvm.lifetime.start.p0(i64 8, ptr %8) #5
  %13 = load ptr, ptr %3, align 8, !tbaa !4
  %14 = load ptr, ptr %4, align 8, !tbaa !29
  %15 = getelementptr inbounds nuw %struct.IdcinContext, ptr %14, i32 0, i32 0
  store ptr %13, ptr %15, align 8, !tbaa !32
  %16 = load ptr, ptr %3, align 8, !tbaa !4
  %17 = getelementptr inbounds nuw %struct.AVCodecContext, ptr %16, i32 0, i32 23
  store i32 11, ptr %17, align 8, !tbaa !34
  %18 = load ptr, ptr %4, align 8, !tbaa !29
  %19 = getelementptr inbounds nuw %struct.IdcinContext, ptr %18, i32 0, i32 0
  %20 = load ptr, ptr %19, align 8, !tbaa !32
  %21 = getelementptr inbounds nuw %struct.AVCodecContext, ptr %20, i32 0, i32 13
  %22 = load i32, ptr %21, align 8, !tbaa !35
  %23 = icmp ne i32 %22, 65536
  br i1 %23, label %24, label %28

24:                                               ; preds = %1
  %25 = load ptr, ptr %4, align 8, !tbaa !29
  %26 = getelementptr inbounds nuw %struct.IdcinContext, ptr %25, i32 0, i32 0
  %27 = load ptr, ptr %26, align 8, !tbaa !32
  call void (ptr, i32, ptr, ...) @av_log(ptr noundef %27, i32 noundef 16, ptr noundef @.str.4, i32 noundef 65536)
  store i32 -1, ptr %2, align 4
  store i32 1, ptr %9, align 4
  br label %68

28:                                               ; preds = %1
  %29 = load ptr, ptr %4, align 8, !tbaa !29
  %30 = getelementptr inbounds nuw %struct.IdcinContext, ptr %29, i32 0, i32 0
  %31 = load ptr, ptr %30, align 8, !tbaa !32
  %32 = getelementptr inbounds nuw %struct.AVCodecContext, ptr %31, i32 0, i32 12
  %33 = load ptr, ptr %32, align 8, !tbaa !36
  store ptr %33, ptr %8, align 8, !tbaa !37
  store i32 0, ptr %5, align 4, !tbaa !31
  br label %34

34:                                               ; preds = %64, %28
  %35 = load i32, ptr %5, align 4, !tbaa !31
  %36 = icmp slt i32 %35, 256
  br i1 %36, label %37, label %67

37:                                               ; preds = %34
  store i32 0, ptr %6, align 4, !tbaa !31
  br label %38

38:                                               ; preds = %58, %37
  %39 = load i32, ptr %6, align 4, !tbaa !31
  %40 = icmp slt i32 %39, 256
  br i1 %40, label %41, label %61

41:                                               ; preds = %38
  %42 = load ptr, ptr %8, align 8, !tbaa !37
  %43 = load i32, ptr %7, align 4, !tbaa !31
  %44 = add nsw i32 %43, 1
  store i32 %44, ptr %7, align 4, !tbaa !31
  %45 = sext i32 %43 to i64
  %46 = getelementptr inbounds i8, ptr %42, i64 %45
  %47 = load i8, ptr %46, align 1, !tbaa !38
  %48 = zext i8 %47 to i32
  %49 = load ptr, ptr %4, align 8, !tbaa !29
  %50 = getelementptr inbounds nuw %struct.IdcinContext, ptr %49, i32 0, i32 3
  %51 = load i32, ptr %5, align 4, !tbaa !31
  %52 = sext i32 %51 to i64
  %53 = getelementptr inbounds [256 x [512 x %struct.hnode]], ptr %50, i64 0, i64 %52
  %54 = load i32, ptr %6, align 4, !tbaa !31
  %55 = sext i32 %54 to i64
  %56 = getelementptr inbounds [512 x %struct.hnode], ptr %53, i64 0, i64 %55
  %57 = getelementptr inbounds nuw %struct.hnode, ptr %56, i32 0, i32 0
  store i32 %48, ptr %57, align 4, !tbaa !39
  br label %58

58:                                               ; preds = %41
  %59 = load i32, ptr %6, align 4, !tbaa !31
  %60 = add nsw i32 %59, 1
  store i32 %60, ptr %6, align 4, !tbaa !31
  br label %38, !llvm.loop !41

61:                                               ; preds = %38
  %62 = load ptr, ptr %4, align 8, !tbaa !29
  %63 = load i32, ptr %5, align 4, !tbaa !31
  call void @huff_build_tree(ptr noundef %62, i32 noundef %63) #6
  br label %64

64:                                               ; preds = %61
  %65 = load i32, ptr %5, align 4, !tbaa !31
  %66 = add nsw i32 %65, 1
  store i32 %66, ptr %5, align 4, !tbaa !31
  br label %34, !llvm.loop !43

67:                                               ; preds = %34
  store i32 0, ptr %2, align 4
  store i32 1, ptr %9, align 4
  br label %68

68:                                               ; preds = %67, %24
  call void @llvm.lifetime.end.p0(i64 8, ptr %8) #5
  call void @llvm.lifetime.end.p0(i64 4, ptr %7) #5
  call void @llvm.lifetime.end.p0(i64 4, ptr %6) #5
  call void @llvm.lifetime.end.p0(i64 4, ptr %5) #5
  call void @llvm.lifetime.end.p0(i64 8, ptr %4) #5
  %69 = load i32, ptr %2, align 4
  ret i32 %69
}