; Function Attrs: cold nounwind optsize uwtable
define internal range(i32 -1, 1) i32 @idcin_decode_init(ptr noundef %0) #0 {
  %2 = getelementptr inbounds nuw i8, ptr %0, i64 32
  %3 = load ptr, ptr %2, align 8, !tbaa !4
  store ptr %0, ptr %3, align 8, !tbaa !27
  %4 = getelementptr inbounds nuw i8, ptr %0, i64 136
  store i32 11, ptr %4, align 8, !tbaa !30
  %5 = getelementptr inbounds nuw i8, ptr %0, i64 80
  %6 = load i32, ptr %5, align 8, !tbaa !31
  %.not = icmp eq i32 %6, 65536
  br i1 %.not, label %8, label %7

7:                                                ; preds = %1
  tail call void (ptr, i32, ptr, ...) @av_log(ptr noundef nonnull %0, i32 noundef 16, ptr noundef nonnull @.str.4, i32 noundef 65536) #6
  br label %.loopexit

8:                                                ; preds = %1
  %9 = getelementptr inbounds nuw i8, ptr %0, i64 72
  %10 = load ptr, ptr %9, align 8, !tbaa !32
  %11 = getelementptr inbounds nuw i8, ptr %3, i64 20
  br label %.preheader

.preheader:                                       ; preds = %8, %18
  %indvars.iv30 = phi i64 [ 0, %8 ], [ %indvars.iv.next31, %18 ]
  %.01824 = phi i64 [ 0, %8 ], [ %indvars.iv.next, %18 ]
  %sext = shl i64 %.01824, 32
  %12 = ashr exact i64 %sext, 32
  br label %13

13:                                               ; preds = %.preheader, %13
  %indvars.iv25 = phi i64 [ 0, %.preheader ], [ %indvars.iv.next26, %13 ]
  %indvars.iv = phi i64 [ %12, %.preheader ], [ %indvars.iv.next, %13 ]
  %indvars.iv.next = add nsw i64 %indvars.iv, 1
  %14 = getelementptr inbounds i8, ptr %10, i64 %indvars.iv
  %15 = load i8, ptr %14, align 1, !tbaa !33
  %16 = zext i8 %15 to i32
  %17 = getelementptr inbounds nuw [256 x [512 x %struct.hnode]], ptr %11, i64 0, i64 %indvars.iv30, i64 %indvars.iv25
  store i32 %16, ptr %17, align 4, !tbaa !34
  %indvars.iv.next26 = add nuw nsw i64 %indvars.iv25, 1
  %exitcond.not = icmp eq i64 %indvars.iv.next26, 256
  br i1 %exitcond.not, label %18, label %13, !llvm.loop !36

18:                                               ; preds = %13
  %19 = trunc nuw nsw i64 %indvars.iv30 to i32
  tail call fastcc void @huff_build_tree(ptr noundef nonnull %3, i32 noundef %19) #7
  %indvars.iv.next31 = add nuw nsw i64 %indvars.iv30, 1
  %exitcond33.not = icmp eq i64 %indvars.iv.next31, 256
  br i1 %exitcond33.not, label %.loopexit, label %.preheader, !llvm.loop !38

.loopexit:                                        ; preds = %18, %7
  %.0 = phi i32 [ -1, %7 ], [ 0, %18 ]
  ret i32 %.0
}